target datalayout = "e-m:e-p270:32:32-p271:32:32-p272:64:64-i64:64-i128:128-f80:128-n8:16:32:64-S128"
target triple = "x86_64-pc-linux-gnu"

%struct.expert_field = type { i32, i32 }
%struct.fr_foreach_s = type { ptr, ptr, ptr, ptr, i32 }
%struct._proto_node = type { ptr, ptr, ptr, ptr, ptr, ptr, ptr }
%struct.field_info = type { ptr, i32, i32, i32, i32, i32, i32, ptr, ptr, ptr, i32, i32 }

@hf_comments_text = internal global i32 0, align 4
@ett_comments = internal global i32 0, align 4
@ei_comments_text = internal global %struct.expert_field zeroinitializer, align 4
@max_comment_lines = internal global i32 30, align 4
@.str.568 = private unnamed_addr constant [1 x i8] zeroinitializer, align 1
@.str.569 = private unnamed_addr constant [2 x i8] c"s\00", align 1
@.str.601 = private unnamed_addr constant [3 x i8] c"%s\00", align 1
@.str.602 = private unnamed_addr constant [9 x i8] c"%s [...]\00", align 1
@.str.603 = private unnamed_addr constant [33 x i8] c"[comment truncated at %d line%s]\00", align 1

; Function Attrs: inlinehint nounwind null_pointer_is_valid sspstrong uwtable
define internal void @proto_item_set_hidden(ptr noundef %0) #5 {
  %2 = alloca ptr, align 8
  store ptr %0, ptr %2, align 8
  %3 = load ptr, ptr %2, align 8
  %4 = icmp ne ptr %3, null
  br i1 %4, label %5, label %24

5:                                                ; preds = %1
  br label %6

6:                                                ; preds = %5
  %7 = load ptr, ptr %2, align 8
  %8 = getelementptr inbounds nuw %struct._proto_node, ptr %7, i32 0, i32 5
  %9 = load ptr, ptr %8, align 8
  %10 = icmp ne ptr %9, null
  br i1 %10, label %11, label %22

11:                                               ; preds = %6
  %12 = load ptr, ptr %2, align 8
  %13 = getelementptr inbounds nuw %struct._proto_node, ptr %12, i32 0, i32 5
  %14 = load ptr, ptr %13, align 8
  %15 = getelementptr inbounds nuw %struct.field_info, ptr %14, i32 0, i32 6
  %16 = load i32, ptr %15, align 4
  %17 = or i32 %16, 1
  %18 = load ptr, ptr %2, align 8
  %19 = getelementptr inbounds nuw %struct._proto_node, ptr %18, i32 0, i32 5
  %20 = load ptr, ptr %19, align 8
  %21 = getelementptr inbounds nuw %struct.field_info, ptr %20, i32 0, i32 6
  store i32 %17, ptr %21, align 4
  br label %22

22:                                               ; preds = %11, %6
  br label %23

23:                                               ; preds = %22
  br label %24

24:                                               ; preds = %23, %1
  ret void
}

; Function Attrs: null_pointer_is_valid sspstrong uwtable
define internal zeroext i1 @frame_add_comment(ptr noundef %0, i32 noundef %1, i32 noundef %2, ptr noundef %3, ptr noundef %4) #0 {
  %6 = alloca ptr, align 8
  %7 = alloca i32, align 4
  %8 = alloca i32, align 4
  %9 = alloca ptr, align 8
  %10 = alloca ptr, align 8
  %11 = alloca ptr, align 8
  %12 = alloca ptr, align 8
  %13 = alloca ptr, align 8
  %14 = alloca ptr, align 8
  %15 = alloca ptr, align 8
  %16 = alloca ptr, align 8
  %17 = alloca i32, align 4
  store ptr %0, ptr %6, align 8
  store i32 %1, ptr %7, align 4
  store i32 %2, ptr %8, align 4
  store ptr %3, ptr %9, align 8
  store ptr %4, ptr %10, align 8
  call void @llvm.lifetime.start.p0(i64 8, ptr %11) #9
  %18 = load ptr, ptr %10, align 8
  store ptr %18, ptr %11, align 8
  call void @llvm.lifetime.start.p0(i64 8, ptr %12) #9
  call void @llvm.lifetime.start.p0(i64 8, ptr %13) #9
  call void @llvm.lifetime.start.p0(i64 8, ptr %14) #9
  call void @llvm.lifetime.start.p0(i64 8, ptr %15) #9
  call void @llvm.lifetime.start.p0(i64 8, ptr %16) #9
  call void @llvm.lifetime.start.p0(i64 4, ptr %17) #9
  %19 = load i32, ptr %7, align 4
  %20 = icmp eq i32 %19, 1
  br i1 %20, label %21, label %131

21:                                               ; preds = %5
  %22 = load ptr, ptr %9, align 8
  %23 = load ptr, ptr %22, align 8
  store ptr %23, ptr %16, align 8
  %24 = load ptr, ptr %16, align 8
  %25 = call ptr @strchr(ptr noundef %24, i32 noundef 10) #13
  store ptr %25, ptr %15, align 8
  %26 = load ptr, ptr %15, align 8
  %27 = icmp eq ptr %26, null
  br i1 %27, label %28, label %39

28:                                               ; preds = %21
  %29 = load ptr, ptr %11, align 8
  %30 = getelementptr inbounds nuw %struct.fr_foreach_s, ptr %29, i32 0, i32 1
  %31 = load ptr, ptr %30, align 8
  %32 = load i32, ptr @hf_comments_text, align 4
  %33 = load ptr, ptr %11, align 8
  %34 = getelementptr inbounds nuw %struct.fr_foreach_s, ptr %33, i32 0, i32 2
  %35 = load ptr, ptr %34, align 8
  %36 = load ptr, ptr %16, align 8
  %37 = load ptr, ptr %16, align 8
  %38 = call ptr (ptr, i32, ptr, i32, i32, ptr, ptr, ...) @proto_tree_add_string_format(ptr noundef %31, i32 noundef %32, ptr noundef %35, i32 noundef 0, i32 noundef 0, ptr noundef %36, ptr noundef @.str.601, ptr noundef %37)
  store ptr %38, ptr %12, align 8
  br label %122

39:                                               ; preds = %21
  %40 = load ptr, ptr %15, align 8
  store i8 0, ptr %40, align 1
  %41 = load ptr, ptr %11, align 8
  %42 = getelementptr inbounds nuw %struct.fr_foreach_s, ptr %41, i32 0, i32 1
  %43 = load ptr, ptr %42, align 8
  %44 = load i32, ptr @hf_comments_text, align 4
  %45 = load ptr, ptr %11, align 8
  %46 = getelementptr inbounds nuw %struct.fr_foreach_s, ptr %45, i32 0, i32 2
  %47 = load ptr, ptr %46, align 8
  %48 = load ptr, ptr %16, align 8
  %49 = load ptr, ptr %16, align 8
  %50 = call ptr (ptr, i32, ptr, i32, i32, ptr, ptr, ...) @proto_tree_add_string_format(ptr noundef %43, i32 noundef %44, ptr noundef %47, i32 noundef 0, i32 noundef 0, ptr noundef %48, ptr noundef @.str.602, ptr noundef %49)
  store ptr %50, ptr %12, align 8
  %51 = load ptr, ptr %12, align 8
  %52 = load i32, ptr @ett_comments, align 4
  %53 = call ptr @proto_item_add_subtree(ptr noundef %51, i32 noundef %52)
  store ptr %53, ptr %14, align 8
  store i32 0, ptr %17, align 4
  br label %54

54:                                               ; preds = %88, %39
  %55 = load i32, ptr %17, align 4
  %56 = load i32, ptr @max_comment_lines, align 4
  %57 = icmp ult i32 %55, %56
  br i1 %57, label %58, label %91

58:                                               ; preds = %54
  %59 = load ptr, ptr %14, align 8
  %60 = load i32, ptr @hf_comments_text, align 4
  %61 = load ptr, ptr %11, align 8
  %62 = getelementptr inbounds nuw %struct.fr_foreach_s, ptr %61, i32 0, i32 2
  %63 = load ptr, ptr %62, align 8
  %64 = load ptr, ptr %16, align 8
  %65 = load ptr, ptr %16, align 8
  %66 = call ptr (ptr, i32, ptr, i32, i32, ptr, ptr, ...) @proto_tree_add_string_format(ptr noundef %59, i32 noundef %60, ptr noundef %63, i32 noundef 0, i32 noundef 0, ptr noundef %64, ptr noundef @.str.601, ptr noundef %65)
  %67 = load ptr, ptr %15, align 8
  %68 = icmp eq ptr %67, null
  br i1 %68, label %69, label %70

69:                                               ; preds = %58
  br label %91

70:                                               ; preds = %58
  %71 = load ptr, ptr %15, align 8
  store i8 10, ptr %71, align 1
  %72 = load ptr, ptr %15, align 8
  %73 = getelementptr i8, ptr %72, i64 1
  store ptr %73, ptr %16, align 8
  %74 = load ptr, ptr %16, align 8
  %75 = load i8, ptr %74, align 1
  %76 = sext i8 %75 to i32
  %77 = icmp eq i32 %76, 0
  br i1 %77, label %78, label %79

78:                                               ; preds = %70
  br label %91

79:                                               ; preds = %70
  %80 = load ptr, ptr %16, align 8
  %81 = call ptr @strchr(ptr noundef %80, i32 noundef 10) #13
  store ptr %81, ptr %15, align 8
  %82 = load ptr, ptr %15, align 8
  %83 = icmp ne ptr %82, null
  br i1 %83, label %84, label %86

84:                                               ; preds = %79
  %85 = load ptr, ptr %15, align 8
  store i8 0, ptr %85, align 1
  br label %86

86:                                               ; preds = %84, %79
  br label %87

87:                                               ; preds = %86
  br label %88

88:                                               ; preds = %87
  %89 = load i32, ptr %17, align 4
  %90 = add i32 %89, 1
  store i32 %90, ptr %17, align 4
  br label %54, !llvm.loop !12

91:                                               ; preds = %78, %69, %54
  %92 = load i32, ptr %17, align 4
  %93 = load i32, ptr @max_comment_lines, align 4
  %94 = icmp eq i32 %92, %93
  br i1 %94, label %95, label %111

95:                                               ; preds = %91
  %96 = load ptr, ptr %15, align 8
  %97 = icmp ne ptr %96, null
  br i1 %97, label %98, label %100

98:                                               ; preds = %95
  %99 = load ptr, ptr %15, align 8
  store i8 10, ptr %99, align 1
  br label %100

100:                                              ; preds = %98, %95
  %101 = load ptr, ptr %14, align 8
  %102 = load i32, ptr @hf_comments_text, align 4
  %103 = load ptr, ptr %11, align 8
  %104 = getelementptr inbounds nuw %struct.fr_foreach_s, ptr %103, i32 0, i32 2
  %105 = load ptr, ptr %104, align 8
  %106 = load i32, ptr @max_comment_lines, align 4
  %107 = load i32, ptr @max_comment_lines, align 4
  %108 = icmp eq i32 %107, 1
  %109 = select i1 %108, ptr @.str.568, ptr @.str.569
  %110 = call ptr (ptr, i32, ptr, i32, i32, ptr, ptr, ...) @proto_tree_add_string_format(ptr noundef %101, i32 noundef %102, ptr noundef %105, i32 noundef 0, i32 noundef 0, ptr noundef @.str.568, ptr noundef @.str.603, i32 noundef %106, ptr noundef %109)
  br label %111

111:                                              ; preds = %100, %91
  %112 = load ptr, ptr %14, align 8
  %113 = load i32, ptr @hf_comments_text, align 4
  %114 = load ptr, ptr %11, align 8
  %115 = getelementptr inbounds nuw %struct.fr_foreach_s, ptr %114, i32 0, i32 2
  %116 = load ptr, ptr %115, align 8
  %117 = load ptr, ptr %9, align 8
  %118 = load ptr, ptr %117, align 8
  %119 = call ptr @proto_tree_add_string(ptr noundef %112, i32 noundef %113, ptr noundef %116, i32 noundef 0, i32 noundef 0, ptr noundef %118)
  store ptr %119, ptr %13, align 8
  %120 = load ptr, ptr %13, align 8
  call void @proto_item_set_hidden(ptr noundef %120)
  %121 = load ptr, ptr %14, align 8
  store ptr %121, ptr %12, align 8
  br label %122

122:                                              ; preds = %111, %28
  %123 = load ptr, ptr %11, align 8
  %124 = getelementptr inbounds nuw %struct.fr_foreach_s, ptr %123, i32 0, i32 3
  %125 = load ptr, ptr %124, align 8
  %126 = load ptr, ptr %12, align 8
  %127 = load ptr, ptr %9, align 8
  %128 = load ptr, ptr %127, align 8
  %129 = call ptr (ptr, ptr, ptr, ptr, ...) @expert_add_info_format(ptr noundef %125, ptr noundef %126, ptr noundef @ei_comments_text, ptr noundef @.str.601, ptr noundef %128)
  store ptr %129, ptr %13, align 8
  %130 = load ptr, ptr %13, align 8
  call void @proto_item_set_hidden(ptr noundef %130)
  br label %131

131:                                              ; preds = %122, %5
  %132 = load ptr, ptr %11, align 8
  %133 = getelementptr inbounds nuw %struct.fr_foreach_s, ptr %132, i32 0, i32 4
  %134 = load i32, ptr %133, align 8
  %135 = add i32 %134, 1
  store i32 %135, ptr %133, align 8
  call void @llvm.lifetime.end.p0(i64 4, ptr %17) #9
  call void @llvm.lifetime.end.p0(i64 8, ptr %16) #9
  call void @llvm.lifetime.end.p0(i64 8, ptr %15) #9
  call void @llvm.lifetime.end.p0(i64 8, ptr %14) #9
  call void @llvm.lifetime.end.p0(i64 8, ptr %13) #9
  call void @llvm.lifetime.end.p0(i64 8, ptr %12) #9
  call void @llvm.lifetime.end.p0(i64 8, ptr %11) #9
  ret i1 true
}