; Function Attrs: null_pointer_is_valid sspstrong uwtable
define internal noundef zeroext i1 @frame_add_comment(ptr readnone captures(none) %0, i32 noundef %1, i32 %2, ptr noundef readonly captures(none) %3, ptr noundef captures(none) %4) #0 {
  %6 = icmp eq i32 %1, 1
  br i1 %6, label %7, label %proto_item_set_hidden.exit50

7:                                                ; preds = %5
  %8 = load ptr, ptr %3, align 8
  %9 = tail call ptr @strchr(ptr noundef %8, i32 noundef 10) #11
  %10 = icmp eq ptr %9, null
  br i1 %10, label %11, label %18

11:                                               ; preds = %7
  %12 = getelementptr inbounds nuw i8, ptr %4, i64 8
  %13 = load ptr, ptr %12, align 8
  %14 = load i32, ptr @hf_comments_text, align 4
  %15 = getelementptr inbounds nuw i8, ptr %4, i64 16
  %16 = load ptr, ptr %15, align 8
  %17 = tail call ptr (ptr, i32, ptr, i32, i32, ptr, ptr, ...) @proto_tree_add_string_format(ptr noundef %13, i32 noundef %14, ptr noundef %16, i32 noundef 0, i32 noundef 0, ptr noundef %8, ptr noundef nonnull @.str.601, ptr noundef %8)
  br label %proto_item_set_hidden.exit

18:                                               ; preds = %7
  store i8 0, ptr %9, align 1
  %19 = getelementptr inbounds nuw i8, ptr %4, i64 8
  %20 = load ptr, ptr %19, align 8
  %21 = load i32, ptr @hf_comments_text, align 4
  %22 = getelementptr inbounds nuw i8, ptr %4, i64 16
  %23 = load ptr, ptr %22, align 8
  %24 = tail call ptr (ptr, i32, ptr, i32, i32, ptr, ptr, ...) @proto_tree_add_string_format(ptr noundef %20, i32 noundef %21, ptr noundef %23, i32 noundef 0, i32 noundef 0, ptr noundef %8, ptr noundef nonnull @.str.602, ptr noundef %8)
  %25 = load i32, ptr @ett_comments, align 4
  %26 = tail call ptr @proto_item_add_subtree(ptr noundef %24, i32 noundef %25)
  %27 = load i32, ptr @max_comment_lines, align 4
  %.not62 = icmp eq i32 %27, 0
  br i1 %.not62, label %.thread69, label %.lr.ph

.lr.ph:                                           ; preds = %18, %39
  %.057 = phi i32 [ %40, %39 ], [ 0, %18 ]
  %.04256 = phi ptr [ %33, %39 ], [ %8, %18 ]
  %.04355 = phi ptr [ %37, %39 ], [ %9, %18 ]
  %28 = load i32, ptr @hf_comments_text, align 4
  %29 = load ptr, ptr %22, align 8
  %30 = tail call ptr (ptr, i32, ptr, i32, i32, ptr, ptr, ...) @proto_tree_add_string_format(ptr noundef %26, i32 noundef %28, ptr noundef %29, i32 noundef 0, i32 noundef 0, ptr noundef %.04256, ptr noundef nonnull @.str.601, ptr noundef %.04256)
  %31 = icmp eq ptr %.04355, null
  br i1 %31, label %.thread, label %32

32:                                               ; preds = %.lr.ph
  store i8 10, ptr %.04355, align 1
  %33 = getelementptr i8, ptr %.04355, i64 1
  %34 = load i8, ptr %33, align 1
  %35 = icmp eq i8 %34, 0
  br i1 %35, label %.._crit_edge.loopexit_crit_edge, label %36

.._crit_edge.loopexit_crit_edge:                  ; preds = %32
  %.pre.pre = load i32, ptr @max_comment_lines, align 4
  br label %._crit_edge

36:                                               ; preds = %32
  %37 = tail call ptr @strchr(ptr noundef %33, i32 noundef 10) #11
  %.not = icmp eq ptr %37, null
  br i1 %.not, label %39, label %38

38:                                               ; preds = %36
  store i8 0, ptr %37, align 1
  br label %39

39:                                               ; preds = %38, %36
  %40 = add nuw i32 %.057, 1
  %41 = load i32, ptr @max_comment_lines, align 4
  %42 = icmp ult i32 %40, %41
  br i1 %42, label %.lr.ph, label %._crit_edge, !llvm.loop !12

._crit_edge:                                      ; preds = %39, %.._crit_edge.loopexit_crit_edge
  %43 = phi i32 [ %.pre.pre, %.._crit_edge.loopexit_crit_edge ], [ %41, %39 ]
  %.043.lcssa = phi ptr [ %.04355, %.._crit_edge.loopexit_crit_edge ], [ %37, %39 ]
  %.0.lcssa = phi i32 [ %.057, %.._crit_edge.loopexit_crit_edge ], [ %40, %39 ]
  %44 = icmp eq i32 %.0.lcssa, %43
  br i1 %44, label %47, label %54

.thread:                                          ; preds = %.lr.ph
  %45 = load i32, ptr @max_comment_lines, align 4
  %46 = icmp eq i32 %.057, %45
  br i1 %46, label %.thread51, label %54

47:                                               ; preds = %._crit_edge
  %.not47 = icmp eq ptr %.043.lcssa, null
  br i1 %.not47, label %.thread51, label %.thread69

.thread69:                                        ; preds = %18, %47
  %.043.lcssa6872 = phi ptr [ %.043.lcssa, %47 ], [ %9, %18 ]
  store i8 10, ptr %.043.lcssa6872, align 1
  %.pre64 = load i32, ptr @max_comment_lines, align 4
  br label %.thread51

.thread51:                                        ; preds = %.thread, %.thread69, %47
  %48 = phi i32 [ %.057, %.thread ], [ %.pre64, %.thread69 ], [ %43, %47 ]
  %49 = load i32, ptr @hf_comments_text, align 4
  %50 = load ptr, ptr %22, align 8
  %51 = icmp eq i32 %48, 1
  %52 = select i1 %51, ptr @.str.568, ptr @.str.569
  %53 = tail call ptr (ptr, i32, ptr, i32, i32, ptr, ptr, ...) @proto_tree_add_string_format(ptr noundef %26, i32 noundef %49, ptr noundef %50, i32 noundef 0, i32 noundef 0, ptr noundef nonnull @.str.568, ptr noundef nonnull @.str.603, i32 noundef %48, ptr noundef nonnull %52)
  br label %54

54:                                               ; preds = %.thread, %.thread51, %._crit_edge
  %55 = load i32, ptr @hf_comments_text, align 4
  %56 = load ptr, ptr %22, align 8
  %57 = load ptr, ptr %3, align 8
  %58 = tail call ptr @proto_tree_add_string(ptr noundef %26, i32 noundef %55, ptr noundef %56, i32 noundef 0, i32 noundef 0, ptr noundef %57)
  %.not.i = icmp eq ptr %58, null
  br i1 %.not.i, label %proto_item_set_hidden.exit, label %59

59:                                               ; preds = %54
  %60 = getelementptr inbounds nuw i8, ptr %58, i64 40
  %61 = load ptr, ptr %60, align 8
  %.not5.i = icmp eq ptr %61, null
  br i1 %.not5.i, label %proto_item_set_hidden.exit, label %62

62:                                               ; preds = %59
  %63 = getelementptr inbounds nuw i8, ptr %61, i64 28
  %64 = load i32, ptr %63, align 4
  %65 = or i32 %64, 1
  store i32 %65, ptr %63, align 4
  br label %proto_item_set_hidden.exit

proto_item_set_hidden.exit:                       ; preds = %62, %59, %54, %11
  %.044 = phi ptr [ %17, %11 ], [ %26, %54 ], [ %26, %59 ], [ %26, %62 ]
  %66 = getelementptr inbounds nuw i8, ptr %4, i64 24
  %67 = load ptr, ptr %66, align 8
  %68 = load ptr, ptr %3, align 8
  %69 = tail call ptr (ptr, ptr, ptr, ptr, ...) @expert_add_info_format(ptr noundef %67, ptr noundef %.044, ptr noundef nonnull @ei_comments_text, ptr noundef nonnull @.str.601, ptr noundef %68)
  %.not.i48 = icmp eq ptr %69, null
  br i1 %.not.i48, label %proto_item_set_hidden.exit50, label %70

70:                                               ; preds = %proto_item_set_hidden.exit
  %71 = getelementptr inbounds nuw i8, ptr %69, i64 40
  %72 = load ptr, ptr %71, align 8
  %.not5.i49 = icmp eq ptr %72, null
  br i1 %.not5.i49, label %proto_item_set_hidden.exit50, label %73

73:                                               ; preds = %70
  %74 = getelementptr inbounds nuw i8, ptr %72, i64 28
  %75 = load i32, ptr %74, align 4
  %76 = or i32 %75, 1
  store i32 %76, ptr %74, align 4
  br label %proto_item_set_hidden.exit50

proto_item_set_hidden.exit50:                     ; preds = %73, %70, %proto_item_set_hidden.exit, %5
  %77 = getelementptr inbounds nuw i8, ptr %4, i64 32
  %78 = load i32, ptr %77, align 8
  %79 = add i32 %78, 1
  store i32 %79, ptr %77, align 8
  ret i1 true
}